#include <math.h>
#include <stdio.h>
#include <stdlib.h>
#include <string.h>

int main()
{
  int n;
  scanf("%d",&n);
  int a[300];
  int i;
  for(i=0;i<300;i++)
  {
    a[i]=0;
  }
  int *p;
  for(p=a;p<a+n;p++)
  {
    scanf("%d ",p);
  }
  p=a;
  int *q;
  for(;p<a+n-1;p++)
  {
    for(q=p+1;q<a+n;q++)
    {
      if(*q==*p) *q=0;
     }
   }
  p=a;
 printf("%d",*p);
  for(p=p+1;p<a+300;p++)
  {
    if(*p!=0)
    printf(",%d",*p);
  }
return 0;
}
    